target datalayout = "e-m:e-p270:32:32-p271:32:32-p272:64:64-i64:64-i128:128-f80:128-n8:16:32:64-S128"
target triple = "x86_64-pc-linux-gnu"

%struct.EventFilterPrivate_HandlerNode_ = type { %struct.EventHandlerRestricted_HandlerNode_, %struct.EventFilters_ }
%struct.EventHandlerRestricted_HandlerNode_ = type { %struct.HandlerNode_, %struct.EventHandlerPrivate_Data_ }
%struct.HandlerNode_ = type { i32, i32, i8, i8, i32 }
%struct.EventHandlerPrivate_Data_ = type { ptr, ptr, ptr, ptr }
%struct.EventFilters_ = type { i32, [10000 x %struct.Filter_] }
%struct.Filter_ = type { i8, %union.anon }
%union.anon = type { %struct.LocationFilter }
%struct.LocationFilter = type { ptr, ptr, i64 }

; Function Attrs: nounwind uwtable
define hidden zeroext i8 @eventFilterRestricted_isBreakpointInClass(ptr noundef %0, ptr noundef %1, ptr noundef %2) #0 {
  %4 = alloca i8, align 1
  %5 = alloca ptr, align 8
  %6 = alloca ptr, align 8
  %7 = alloca ptr, align 8
  %8 = alloca ptr, align 8
  %9 = alloca i32, align 4
  store ptr %0, ptr %5, align 8
  store ptr %1, ptr %6, align 8
  store ptr %2, ptr %7, align 8
  %10 = load ptr, ptr %7, align 8
  %11 = getelementptr inbounds %struct.EventFilterPrivate_HandlerNode_, ptr %10, i32 0, i32 1
  %12 = getelementptr inbounds %struct.EventFilters_, ptr %11, i32 0, i32 1
  %13 = getelementptr inbounds [10000 x %struct.Filter_], ptr %12, i64 0, i64 0
  store ptr %13, ptr %8, align 8
  store i32 0, ptr %9, align 4
  br label %14

14:                                               ; preds = %35, %3
  %15 = load i32, ptr %9, align 4
  %16 = load ptr, ptr %7, align 8
  %17 = getelementptr inbounds %struct.EventFilterPrivate_HandlerNode_, ptr %16, i32 0, i32 1
  %18 = getelementptr inbounds %struct.EventFilters_, ptr %17, i32 0, i32 0
  %19 = load i32, ptr %18, align 8
  %20 = icmp slt i32 %15, %19
  br i1 %20, label %21, label %40

21:                                               ; preds = %14
  %22 = load ptr, ptr %8, align 8
  %23 = getelementptr inbounds %struct.Filter_, ptr %22, i32 0, i32 0
  %24 = load i8, ptr %23, align 8
  %25 = sext i8 %24 to i32
  switch i32 %25, label %34 [
    i32 7, label %26
  ]

26:                                               ; preds = %21
  %27 = load ptr, ptr %5, align 8
  %28 = load ptr, ptr %6, align 8
  %29 = load ptr, ptr %8, align 8
  %30 = getelementptr inbounds %struct.Filter_, ptr %29, i32 0, i32 1
  %31 = getelementptr inbounds %struct.LocationFilter, ptr %30, i32 0, i32 0
  %32 = load ptr, ptr %31, align 8
  %33 = call zeroext i8 @isSameObject(ptr noundef %27, ptr noundef %28, ptr noundef %32)
  store i8 %33, ptr %4, align 1
  br label %41

34:                                               ; preds = %21
  br label %35

35:                                               ; preds = %34
  %36 = load i32, ptr %9, align 4
  %37 = add nsw i32 %36, 1
  store i32 %37, ptr %9, align 4
  %38 = load ptr, ptr %8, align 8
  %39 = getelementptr inbounds %struct.Filter_, ptr %38, i32 1
  store ptr %39, ptr %8, align 8
  br label %14, !llvm.loop !11

40:                                               ; preds = %14
  store i8 1, ptr %4, align 1
  br label %41

41:                                               ; preds = %40, %26
  %42 = load i8, ptr %4, align 1
  ret i8 %42
}