; Function Attrs: nounwind uwtable
define hidden zeroext i8 @eventFilterRestricted_isBreakpointInClass(ptr noundef %0, ptr noundef %1, ptr nocapture noundef readonly %2) local_unnamed_addr #0 {
  %4 = getelementptr inbounds i8, ptr %2, i64 48
  %5 = load i32, ptr %4, align 8
  %6 = icmp sgt i32 %5, 0
  br i1 %6, label %.lr.ph.preheader, label %.loopexit

.lr.ph.preheader:                                 ; preds = %3
  %7 = getelementptr inbounds i8, ptr %2, i64 56
  br label %.lr.ph

.lr.ph:                                           ; preds = %.lr.ph.preheader, %13
  %.013 = phi i32 [ %14, %13 ], [ 0, %.lr.ph.preheader ]
  %.0912 = phi ptr [ %15, %13 ], [ %7, %.lr.ph.preheader ]
  %8 = load i8, ptr %.0912, align 8
  %cond = icmp eq i8 %8, 7
  br i1 %cond, label %9, label %13

9:                                                ; preds = %.lr.ph
  %10 = getelementptr inbounds i8, ptr %.0912, i64 8
  %11 = load ptr, ptr %10, align 8
  %12 = tail call zeroext i8 @isSameObject(ptr noundef %0, ptr noundef %1, ptr noundef %11) #6
  br label %.loopexit

13:                                               ; preds = %.lr.ph
  %14 = add nuw nsw i32 %.013, 1
  %15 = getelementptr inbounds i8, ptr %.0912, i64 32
  %exitcond.not = icmp eq i32 %14, %5
  br i1 %exitcond.not, label %.loopexit, label %.lr.ph, !llvm.loop !11

.loopexit:                                        ; preds = %13, %3, %9
  %.010 = phi i8 [ %12, %9 ], [ 1, %3 ], [ 1, %13 ]
  ret i8 %.010
}